# SymbolsHelper-Confirmed: 4:4.8.4 amd64
libkiten.so.4abi1 libkiten4abi1 #MINVER#
* Build-Depends-Package: libkiten-dev
 ABI_4_1@ABI_4_1 4:4.8.4
 _ZN10EntryEdict9loadEntryERK7QString@ABI_4_1 4:4.8.4
 _ZN10EntryEdictC1ERK7QString@ABI_4_1 4:4.8.4
 _ZN10EntryEdictC1ERK7QStringS2_@ABI_4_1 4:4.8.4
 _ZN10EntryEdictC2ERK7QString@ABI_4_1 4:4.8.4
 _ZN10EntryEdictC2ERK7QStringS2_@ABI_4_1 4:4.8.4
 _ZN10EntryEdictD0Ev@ABI_4_1 4:4.8.4
 _ZN10EntryEdictD1Ev@ABI_4_1 4:4.8.4
 _ZN10EntryEdictD2Ev@ABI_4_1 4:4.8.4
 _ZN13DictFileEdict10validQueryERK9DictQuery@ABI_4_1 4:4.8.4
 _ZN13DictFileEdict12loadListTypeEP19KConfigSkeletonItemP11QStringListRK4QMapI7QStringS5_E@ABI_4_1 4:4.8.4
 _ZN13DictFileEdict12loadSettingsEP15KConfigSkeleton@ABI_4_1 4:4.8.4
 _ZN13DictFileEdict12loadSettingsEv@ABI_4_1 4:4.8.4
 _ZN13DictFileEdict13displayFieldsE@ABI_4_1 4:4.8.4
 _ZN13DictFileEdict14loadDictionaryERK7QStringS2_@ABI_4_1 4:4.8.4
 _ZN13DictFileEdict17deinflectionLabelE@ABI_4_1 4:4.8.4
 _ZN13DictFileEdict17preferencesWidgetEP15KConfigSkeletonP7QWidget@ABI_4_1 4:4.8.4
 _ZN13DictFileEdict19validDictionaryFileERK7QString@ABI_4_1 4:4.8.4
 _ZN13DictFileEdict8doSearchERK9DictQuery@ABI_4_1 4:4.8.4
 _ZN13DictFileEdict8wordTypeE@ABI_4_1 4:4.8.4
 _ZN13DictFileEdict9makeEntryERK7QString@ABI_4_1 4:4.8.4
 _ZN13DictFileEdictC1Ev@ABI_4_1 4:4.8.4
 _ZN13DictFileEdictC2Ev@ABI_4_1 4:4.8.4
 _ZN13DictFileEdictD0Ev@ABI_4_1 4:4.8.4
 _ZN13DictFileEdictD1Ev@ABI_4_1 4:4.8.4
 _ZN13DictFileEdictD2Ev@ABI_4_1 4:4.8.4
 _ZN13EntryKanjidic9loadEntryERK7QString@ABI_4_1 4:4.8.4
 _ZN13EntryKanjidicC1ERK7QString@ABI_4_1 4:4.8.4
 _ZN13EntryKanjidicC1ERK7QStringS2_@ABI_4_1 4:4.8.4
 _ZN13EntryKanjidicC1ERKS_@ABI_4_1 4:4.8.4
 _ZN13EntryKanjidicC2ERK7QString@ABI_4_1 4:4.8.4
 _ZN13EntryKanjidicC2ERK7QStringS2_@ABI_4_1 4:4.8.4
 _ZN13EntryKanjidicC2ERKS_@ABI_4_1 4:4.8.4
 _ZN13EntryKanjidicD0Ev@ABI_4_1 4:4.8.4
 _ZN13EntryKanjidicD1Ev@ABI_4_1 4:4.8.4
 _ZN13EntryKanjidicD2Ev@ABI_4_1 4:4.8.4
 _ZN14HistoryPtrList10setCurrentEi@ABI_4_1 4:4.8.4
 _ZN14HistoryPtrList12toStringListEv@ABI_4_1 4:4.8.4
 _ZN14HistoryPtrList16toStringListNextEv@ABI_4_1 4:4.8.4
 _ZN14HistoryPtrList16toStringListPrevEv@ABI_4_1 4:4.8.4
 _ZN14HistoryPtrList4nextEi@ABI_4_1 4:4.8.4
 _ZN14HistoryPtrList4prevEi@ABI_4_1 4:4.8.4
 _ZN14HistoryPtrList5countEv@ABI_4_1 4:4.8.4
 _ZN14HistoryPtrList5indexEv@ABI_4_1 4:4.8.4
 _ZN14HistoryPtrList7addItemEP9EntryList@ABI_4_1 4:4.8.4
 _ZN14HistoryPtrList7currentEv@ABI_4_1 4:4.8.4
 _ZN14HistoryPtrListC1Ev@ABI_4_1 4:4.8.4
 _ZN14HistoryPtrListC2Ev@ABI_4_1 4:4.8.4
 _ZN14HistoryPtrListD0Ev@ABI_4_1 4:4.8.4
 _ZN14HistoryPtrListD1Ev@ABI_4_1 4:4.8.4
 _ZN14HistoryPtrListD2Ev@ABI_4_1 4:4.8.4
 _ZN16DictFileKanjidic10validQueryERK9DictQuery@ABI_4_1 4:4.8.4
 _ZN16DictFileKanjidic12loadListTypeEP19KConfigSkeletonItemP11QStringListRK4QMapI7QStringS5_E@ABI_4_1 4:4.8.4
 _ZN16DictFileKanjidic12loadSettingsEP15KConfigSkeleton@ABI_4_1 4:4.8.4
 _ZN16DictFileKanjidic12loadSettingsEv@ABI_4_1 4:4.8.4
 _ZN16DictFileKanjidic13displayFieldsE@ABI_4_1 4:4.8.4
 _ZN16DictFileKanjidic14dumpDictionaryEv@ABI_4_1 4:4.8.4
 _ZN16DictFileKanjidic14loadDictionaryERK7QStringS2_@ABI_4_1 4:4.8.4
 _ZN16DictFileKanjidic19validDictionaryFileERK7QString@ABI_4_1 4:4.8.4
 _ZN16DictFileKanjidic8doSearchERK9DictQuery@ABI_4_1 4:4.8.4
 _ZN16DictFileKanjidicC1Ev@ABI_4_1 4:4.8.4
 _ZN16DictFileKanjidicC2Ev@ABI_4_1 4:4.8.4
 _ZN16DictFileKanjidicD0Ev@ABI_4_1 4:4.8.4
 _ZN16DictFileKanjidicD1Ev@ABI_4_1 4:4.8.4
 _ZN16DictFileKanjidicD2Ev@ABI_4_1 4:4.8.4
 _ZN17DictionaryManager12loadSettingsERK7KConfig@ABI_4_1 4:4.8.4
 _ZN17DictionaryManager12makeDictFileERK7QString@ABI_4_1 4:4.8.4
 _ZN17DictionaryManager13addDictionaryERK7QStringS2_S2_@ABI_4_1 4:4.8.4
 _ZN17DictionaryManager16loadDictSettingsERK7QStringP15KConfigSkeleton@ABI_4_1 4:4.8.4
 _ZN17DictionaryManager16removeDictionaryERK7QString@ABI_4_1 4:4.8.4
 _ZN17DictionaryManager17listDictFileTypesEv@ABI_4_1 4:4.8.4
 _ZN17DictionaryManager21removeAllDictionariesEv@ABI_4_1 4:4.8.4
 _ZN17DictionaryManager25generatePreferenceDialogsEP15KConfigSkeletonP7QWidget@ABI_4_1 4:4.8.4
 _ZN17DictionaryManager26generateExtendedFieldsListEv@ABI_4_1 4:4.8.4
 _ZN17DictionaryManagerC1Ev@ABI_4_1 4:4.8.4
 _ZN17DictionaryManagerC2Ev@ABI_4_1 4:4.8.4
 _ZN17DictionaryManagerD0Ev@ABI_4_1 4:4.8.4
 _ZN17DictionaryManagerD1Ev@ABI_4_1 4:4.8.4
 _ZN17DictionaryManagerD2Ev@ABI_4_1 4:4.8.4
 _ZN26DictionaryPreferenceDialog11qt_metacallEN11QMetaObject4CallEiPPv@ABI_4_1 4:4.8.4
 _ZN26DictionaryPreferenceDialog11qt_metacastEPKc@ABI_4_1 4:4.8.4
 _ZN26DictionaryPreferenceDialog13widgetChangedEv@ABI_4_1 4:4.8.4
 _ZN26DictionaryPreferenceDialog16staticMetaObjectE@ABI_4_1 4:4.8.4
 _ZN26DictionaryPreferenceDialogC1EP7QWidgetRK7QString@ABI_4_1 4:4.8.4
 _ZN26DictionaryPreferenceDialogC2EP7QWidgetRK7QString@ABI_4_1 4:4.8.4
 _ZN26DictionaryPreferenceDialogD0Ev@ABI_4_1 4:4.8.4
 _ZN26DictionaryPreferenceDialogD1Ev@ABI_4_1 4:4.8.4
 _ZN26DictionaryPreferenceDialogD2Ev@ABI_4_1 4:4.8.4
 _ZN5Entry4initEv@ABI_4_1 4:4.8.4
 _ZN5EntryC1ERK7QString@ABI_4_1 4:4.8.4
 _ZN5EntryC1ERK7QStringS2_RK11QStringListS5_@ABI_4_1 4:4.8.4
 _ZN5EntryC1ERKS_@ABI_4_1 4:4.8.4
 _ZN5EntryC1Ev@ABI_4_1 4:4.8.4
 _ZN5EntryC2ERK7QString@ABI_4_1 4:4.8.4
 _ZN5EntryC2ERK7QStringS2_RK11QStringListS5_@ABI_4_1 4:4.8.4
 _ZN5EntryC2ERKS_@ABI_4_1 4:4.8.4
 _ZN5EntryC2Ev@ABI_4_1 4:4.8.4
 _ZN5EntryD0Ev@ABI_4_1 4:4.8.4
 _ZN5EntryD1Ev@ABI_4_1 4:4.8.4
 _ZN5EntryD2Ev@ABI_4_1 4:4.8.4
 _ZN9DictQuery10setMeaningERK7QString@ABI_4_1 4:4.8.4
 _ZN9DictQuery11setPropertyERK7QStringS2_@ABI_4_1 4:4.8.4
 _ZN9DictQuery12setMatchTypeENS_9MatchTypeE@ABI_4_1 4:4.8.4
 _ZN9DictQuery12takePropertyERK7QString@ABI_4_1 4:4.8.4
 _ZN9DictQuery13charTypeCheckERK5QChar@ABI_4_1 4:4.8.4
 _ZN9DictQuery13mainDelimiterE@ABI_4_1 4:4.8.4
 _ZN9DictQuery13setFilterTypeENS_10FilterTypeE@ABI_4_1 4:4.8.4
 _ZN9DictQuery14removePropertyERK7QString@ABI_4_1 4:4.8.4
 _ZN9DictQuery15setDictionariesERK11QStringList@ABI_4_1 4:4.8.4
 _ZN9DictQuery15stringTypeCheckERK7QString@ABI_4_1 4:4.8.4
 _ZN9DictQuery16setMatchWordTypeENS_13MatchWordTypeE@ABI_4_1 4:4.8.4
 _ZN9DictQuery16setPronunciationERK7QString@ABI_4_1 4:4.8.4
 _ZN9DictQuery17propertySeperatorE@ABI_4_1 4:4.8.4
 _ZN9DictQuery5clearEv@ABI_4_1 4:4.8.4
 _ZN9DictQuery7Private10wordMarkerE@ABI_4_1 4:4.8.4
 _ZN9DictQuery7Private13meaningMarkerE@ABI_4_1 4:4.8.4
 _ZN9DictQuery7Private19pronunciationMarkerE@ABI_4_1 4:4.8.4
 _ZN9DictQuery7setWordERK7QString@ABI_4_1 4:4.8.4
 _ZN9DictQueryC1ERK7QString@ABI_4_1 4:4.8.4
 _ZN9DictQueryC1ERKS_@ABI_4_1 4:4.8.4
 _ZN9DictQueryC1Ev@ABI_4_1 4:4.8.4
 _ZN9DictQueryC2ERK7QString@ABI_4_1 4:4.8.4
 _ZN9DictQueryC2ERKS_@ABI_4_1 4:4.8.4
 _ZN9DictQueryC2Ev@ABI_4_1 4:4.8.4
 _ZN9DictQueryD1Ev@ABI_4_1 4:4.8.4
 _ZN9DictQueryD2Ev@ABI_4_1 4:4.8.4
 _ZN9DictQueryaSERK7QString@ABI_4_1 4:4.8.4
 _ZN9DictQueryaSERKS_@ABI_4_1 4:4.8.4
 _ZN9DictQueryixERK7QString@ABI_4_1 4:4.8.4
 _ZN9DictQuerypLERKS_@ABI_4_1 4:4.8.4
 _ZN9EntryList10appendListEPKS_@ABI_4_1 4:4.8.4
 _ZN9EntryList14setScrollValueEi@ABI_4_1 4:4.8.4
 _ZN9EntryList4sortER11QStringListS1_@ABI_4_1 4:4.8.4
 _ZN9EntryList8setQueryERK9DictQuery@ABI_4_1 4:4.8.4
 _ZN9EntryList9deleteAllEv@ABI_4_1 4:4.8.4
 _ZN9EntryListC1ERKS_@ABI_4_1 4:4.8.4
 _ZN9EntryListC1Ev@ABI_4_1 4:4.8.4
 _ZN9EntryListC2ERKS_@ABI_4_1 4:4.8.4
 _ZN9EntryListC2Ev@ABI_4_1 4:4.8.4
 _ZN9EntryListD0Ev@ABI_4_1 4:4.8.4
 _ZN9EntryListD1Ev@ABI_4_1 4:4.8.4
 _ZN9EntryListD2Ev@ABI_4_1 4:4.8.4
 _ZN9EntryListaSERKS_@ABI_4_1 4:4.8.4
 _ZN9EntryListpLERKS_@ABI_4_1 4:4.8.4
 _ZNK10EntryEdict10isParticleEv@ABI_4_1 4:4.8.4
 _ZNK10EntryEdict11isAdjectiveEv@ABI_4_1 4:4.8.4
 _ZNK10EntryEdict11isGodanVerbEv@ABI_4_1 4:4.8.4
 _ZNK10EntryEdict12getTypesListEv@ABI_4_1 4:4.8.4
 _ZNK10EntryEdict12isExpressionEv@ABI_4_1 4:4.8.4
 _ZNK10EntryEdict12kanjiLinkifyERK7QString@ABI_4_1 4:4.8.4
 _ZNK10EntryEdict13isIchidanVerbEv@ABI_4_1 4:4.8.4
 _ZNK10EntryEdict14isFukisokuVerbEv@ABI_4_1 4:4.8.4
 _ZNK10EntryEdict15matchesWordTypeERK9DictQuery@ABI_4_1 4:4.8.4
 _ZNK10EntryEdict17getDictionaryTypeEv@ABI_4_1 4:4.8.4
 _ZNK10EntryEdict5cloneEv@ABI_4_1 4:4.8.4
 _ZNK10EntryEdict6isNounEv@ABI_4_1 4:4.8.4
 _ZNK10EntryEdict6isVerbEv@ABI_4_1 4:4.8.4
 _ZNK10EntryEdict6toHTMLEv@ABI_4_1 4:4.8.4
 _ZNK10EntryEdict8HTMLWordEv@ABI_4_1 4:4.8.4
 _ZNK10EntryEdict8getTypesEv@ABI_4_1 4:4.8.4
 _ZNK10EntryEdict8isAdverbEv@ABI_4_1 4:4.8.4
 _ZNK10EntryEdict8isCommonEv@ABI_4_1 4:4.8.4
 _ZNK10EntryEdict8isPrefixEv@ABI_4_1 4:4.8.4
 _ZNK10EntryEdict8isSuffixEv@ABI_4_1 4:4.8.4
 _ZNK10EntryEdict9dumpEntryEv@ABI_4_1 4:4.8.4
 _ZNK13DictFileEdict14displayOptionsEv@ABI_4_1 4:4.8.4
 _ZNK13DictFileEdict18loadDisplayOptionsEv@ABI_4_1 4:4.8.4
 _ZNK13DictFileEdict22listDictDisplayOptionsE11QStringList@ABI_4_1 4:4.8.4
 _ZNK13EntryKanjidic11addReadingsERK11QStringList@ABI_4_1 4:4.8.4
 _ZNK13EntryKanjidic12HTMLReadingsEv@ABI_4_1 4:4.8.4
 _ZNK13EntryKanjidic13getKanjiGradeEv@ABI_4_1 4:4.8.4
 _ZNK13EntryKanjidic15getStrokesCountEv@ABI_4_1 4:4.8.4
 _ZNK13EntryKanjidic15makeReadingLinkERK7QString@ABI_4_1 4:4.8.4
 _ZNK13EntryKanjidic16HTMLExtendedInfoERK7QString@ABI_4_1 4:4.8.4
 _ZNK13EntryKanjidic17extendedItemCheckERK7QStringS2_@ABI_4_1 4:4.8.4
 _ZNK13EntryKanjidic17getDictionaryTypeEv@ABI_4_1 4:4.8.4
 _ZNK13EntryKanjidic17getOnyomiReadingsEv@ABI_4_1 4:4.8.4
 _ZNK13EntryKanjidic18getInNamesReadingsEv@ABI_4_1 4:4.8.4
 _ZNK13EntryKanjidic18getKunyomiReadingsEv@ABI_4_1 4:4.8.4
 _ZNK13EntryKanjidic20getAsRadicalReadingsEv@ABI_4_1 4:4.8.4
 _ZNK13EntryKanjidic21getOnyomiReadingsListEv@ABI_4_1 4:4.8.4
 _ZNK13EntryKanjidic22getInNamesReadingsListEv@ABI_4_1 4:4.8.4
 _ZNK13EntryKanjidic22getKunyomiReadingsListEv@ABI_4_1 4:4.8.4
 _ZNK13EntryKanjidic24getAsRadicalReadingsListEv@ABI_4_1 4:4.8.4
 _ZNK13EntryKanjidic5cloneEv@ABI_4_1 4:4.8.4
 _ZNK13EntryKanjidic6toHTMLEv@ABI_4_1 4:4.8.4
 _ZNK13EntryKanjidic8HTMLWordEv@ABI_4_1 4:4.8.4
 _ZNK13EntryKanjidic9dumpEntryEv@ABI_4_1 4:4.8.4
 _ZNK16DictFileKanjidic14displayOptionsEv@ABI_4_1 4:4.8.4
 _ZNK16DictFileKanjidic18loadDisplayOptionsEv@ABI_4_1 4:4.8.4
 _ZNK16DictFileKanjidic22listDictDisplayOptionsE11QStringList@ABI_4_1 4:4.8.4
 _ZNK17DictionaryManager14doSearchInListERK9DictQueryPK9EntryList@ABI_4_1 4:4.8.4
 _ZNK17DictionaryManager16listDictionariesEv@ABI_4_1 4:4.8.4
 _ZNK17DictionaryManager18listDictionaryInfoERK7QString@ABI_4_1 4:4.8.4
 _ZNK17DictionaryManager22listDictionariesOfTypeERK7QString@ABI_4_1 4:4.8.4
 _ZNK17DictionaryManager8doSearchERK9DictQuery@ABI_4_1 4:4.8.4
 _ZNK26DictionaryPreferenceDialog10metaObjectEv@ABI_4_1 4:4.8.4
 _ZNK26DictionaryPreferenceDialog4nameEv@ABI_4_1 4:4.8.4
 _ZNK5Entry11getDictNameEv@ABI_4_1 4:4.8.4
 _ZNK5Entry11getMeaningsEv@ABI_4_1 4:4.8.4
 _ZNK5Entry11getReadingsEv@ABI_4_1 4:4.8.4
 _ZNK5Entry11sortByFieldERKS_RK7QString@ABI_4_1 4:4.8.4
 _ZNK5Entry12HTMLMeaningsEv@ABI_4_1 4:4.8.4
 _ZNK5Entry12HTMLReadingsEv@ABI_4_1 4:4.8.4
 _ZNK5Entry12matchesQueryERK9DictQuery@ABI_4_1 4:4.8.4
 _ZNK5Entry15getExtendedInfoEv@ABI_4_1 4:4.8.4
 _ZNK5Entry15getMeaningsListEv@ABI_4_1 4:4.8.4
 _ZNK5Entry15getReadingsListEv@ABI_4_1 4:4.8.4
 _ZNK5Entry17extendedItemCheckERK7QStringS2_@ABI_4_1 4:4.8.4
 _ZNK5Entry19getExtendedInfoItemERK7QString@ABI_4_1 4:4.8.4
 _ZNK5Entry4sortERKS_RK11QStringListS4_@ABI_4_1 4:4.8.4
 _ZNK5Entry6toHTMLEv@ABI_4_1 4:4.8.4
 _ZNK5Entry7getWordEv@ABI_4_1 4:4.8.4
 _ZNK5Entry7isKanjiERK5QChar@ABI_4_1 4:4.8.4
 _ZNK5Entry7toKVTMLEv@ABI_4_1 4:4.8.4
 _ZNK5Entry8HTMLWordEv@ABI_4_1 4:4.8.4
 _ZNK5Entry8makeLinkERK7QString@ABI_4_1 4:4.8.4
 _ZNK5Entry8toStringEv@ABI_4_1 4:4.8.4
 _ZNK5Entry9listMatchERK11QStringListS2_N9DictQuery9MatchTypeE@ABI_4_1 4:4.8.4
 _ZNK9DictQuery10getMeaningEv@ABI_4_1 4:4.8.4
 _ZNK9DictQuery11getPropertyERK7QString@ABI_4_1 4:4.8.4
 _ZNK9DictQuery11hasPropertyERK7QString@ABI_4_1 4:4.8.4
 _ZNK9DictQuery12getMatchTypeEv@ABI_4_1 4:4.8.4
 _ZNK9DictQuery13getFilterTypeEv@ABI_4_1 4:4.8.4
 _ZNK9DictQuery15getDictionariesEv@ABI_4_1 4:4.8.4
 _ZNK9DictQuery16getMatchWordTypeEv@ABI_4_1 4:4.8.4
 _ZNK9DictQuery16getPronunciationEv@ABI_4_1 4:4.8.4
 _ZNK9DictQuery16listPropertyKeysEv@ABI_4_1 4:4.8.4
 _ZNK9DictQuery5cloneEv@ABI_4_1 4:4.8.4
 _ZNK9DictQuery7getWordEv@ABI_4_1 4:4.8.4
 _ZNK9DictQuery7isEmptyEv@ABI_4_1 4:4.8.4
 _ZNK9DictQuery8toStringEv@ABI_4_1 4:4.8.4
 _ZNK9DictQuerycv7QStringEv@ABI_4_1 4:4.8.4
 _ZNK9DictQueryixERK7QString@ABI_4_1 4:4.8.4
 _ZNK9EntryList11scrollValueEv@ABI_4_1 4:4.8.4
 _ZNK9EntryList6toHTMLEjj@ABI_4_1 4:4.8.4
 _ZNK9EntryList6toHTMLEv@ABI_4_1 4:4.8.4
 _ZNK9EntryList7toKVTMLEjj@ABI_4_1 4:4.8.4
 _ZNK9EntryList8getQueryEv@ABI_4_1 4:4.8.4
 _ZNK9EntryList8toStringEjj@ABI_4_1 4:4.8.4
 _ZNK9EntryList8toStringEv@ABI_4_1 4:4.8.4
 _ZTI10EntryEdict@ABI_4_1 4:4.8.4
 _ZTI13DictFileEdict@ABI_4_1 4:4.8.4
 _ZTI13EntryKanjidic@ABI_4_1 4:4.8.4
 _ZTI14HistoryPtrList@ABI_4_1 4:4.8.4
 _ZTI16DictFileKanjidic@ABI_4_1 4:4.8.4
 _ZTI17DictionaryManager@ABI_4_1 4:4.8.4
 _ZTI26DictionaryPreferenceDialog@ABI_4_1 4:4.8.4
 _ZTI5Entry@ABI_4_1 4:4.8.4
 _ZTI9EntryList@ABI_4_1 4:4.8.4
 _ZTS10EntryEdict@ABI_4_1 4:4.8.4
 _ZTS13DictFileEdict@ABI_4_1 4:4.8.4
 _ZTS13EntryKanjidic@ABI_4_1 4:4.8.4
 _ZTS14HistoryPtrList@ABI_4_1 4:4.8.4
 _ZTS16DictFileKanjidic@ABI_4_1 4:4.8.4
 _ZTS17DictionaryManager@ABI_4_1 4:4.8.4
 _ZTS26DictionaryPreferenceDialog@ABI_4_1 4:4.8.4
 _ZTS5Entry@ABI_4_1 4:4.8.4
 _ZTS9EntryList@ABI_4_1 4:4.8.4
 _ZTV10EntryEdict@ABI_4_1 4:4.8.4
 _ZTV13DictFileEdict@ABI_4_1 4:4.8.4
 _ZTV13EntryKanjidic@ABI_4_1 4:4.8.4
 _ZTV14HistoryPtrList@ABI_4_1 4:4.8.4
 _ZTV16DictFileKanjidic@ABI_4_1 4:4.8.4
 _ZTV17DictionaryManager@ABI_4_1 4:4.8.4
 _ZTV26DictionaryPreferenceDialog@ABI_4_1 4:4.8.4
 _ZTV5Entry@ABI_4_1 4:4.8.4
 _ZTV9EntryList@ABI_4_1 4:4.8.4
 _ZeqRK9DictQueryS1_@ABI_4_1 4:4.8.4
 _ZltRK9DictQueryS1_@ABI_4_1 4:4.8.4
 _ZneRK9DictQueryS1_@ABI_4_1 4:4.8.4
 _ZplRK9DictQueryS1_@ABI_4_1 4:4.8.4
 (c++)"non-virtual thunk to DictionaryPreferenceDialog::~DictionaryPreferenceDialog()@ABI_4_1" 4:4.8.4
