# SymbolsHelper-Confirmed: 4:15.03.80 amd64
libkiten.so.5 libkiten5 #MINVER#
 _ZN10EntryEdict9loadEntryERK7QString@Base 4:15.03.80
 _ZN10EntryEdictC1ERK7QString@Base 4:15.03.80
 _ZN10EntryEdictC1ERK7QStringS2_@Base 4:15.03.80
 _ZN10EntryEdictC2ERK7QString@Base 4:15.03.80
 _ZN10EntryEdictC2ERK7QStringS2_@Base 4:15.03.80
 _ZN10EntryEdictD0Ev@Base 4:15.03.80
 _ZN10EntryEdictD1Ev@Base 4:15.03.80
 _ZN10EntryEdictD2Ev@Base 4:15.03.80
 _ZN13DictFileEdict10validQueryERK9DictQuery@Base 4:15.03.80
 _ZN13DictFileEdict12loadListTypeEP19KConfigSkeletonItemP11QStringListRK4QMapI7QStringS5_E@Base 4:15.03.80
 _ZN13DictFileEdict12loadSettingsEP15KConfigSkeleton@Base 4:15.03.80
 _ZN13DictFileEdict12loadSettingsEv@Base 4:15.03.80
 _ZN13DictFileEdict13displayFieldsE@Base 4:15.03.80
 _ZN13DictFileEdict14loadDictionaryERK7QStringS2_@Base 4:15.03.80
 _ZN13DictFileEdict17deinflectionLabelE@Base 4:15.03.80
 _ZN13DictFileEdict17preferencesWidgetEP15KConfigSkeletonP7QWidget@Base 4:15.03.80
 _ZN13DictFileEdict19validDictionaryFileERK7QString@Base 4:15.03.80
 _ZN13DictFileEdict8doSearchERK9DictQuery@Base 4:15.03.80
 _ZN13DictFileEdict8wordTypeE@Base 4:15.03.80
 _ZN13DictFileEdict9makeEntryERK7QString@Base 4:15.03.80
 _ZN13DictFileEdictC1Ev@Base 4:15.03.80
 _ZN13DictFileEdictC2Ev@Base 4:15.03.80
 _ZN13DictFileEdictD0Ev@Base 4:15.03.80
 _ZN13DictFileEdictD1Ev@Base 4:15.03.80
 _ZN13DictFileEdictD2Ev@Base 4:15.03.80
 _ZN13EntryKanjidic9loadEntryERK7QString@Base 4:15.03.80
 _ZN13EntryKanjidicC1ERK7QString@Base 4:15.03.80
 _ZN13EntryKanjidicC1ERK7QStringS2_@Base 4:15.03.80
 _ZN13EntryKanjidicC1ERKS_@Base 4:15.03.80
 _ZN13EntryKanjidicC2ERK7QString@Base 4:15.03.80
 _ZN13EntryKanjidicC2ERK7QStringS2_@Base 4:15.03.80
 _ZN13EntryKanjidicC2ERKS_@Base 4:15.03.80
 _ZN13EntryKanjidicD0Ev@Base 4:15.03.80
 _ZN13EntryKanjidicD1Ev@Base 4:15.03.80
 _ZN13EntryKanjidicD2Ev@Base 4:15.03.80
 _ZN14HistoryPtrList10setCurrentEi@Base 4:15.03.80
 _ZN14HistoryPtrList12toStringListEv@Base 4:15.03.80
 _ZN14HistoryPtrList16toStringListNextEv@Base 4:15.03.80
 _ZN14HistoryPtrList16toStringListPrevEv@Base 4:15.03.80
 _ZN14HistoryPtrList4nextEi@Base 4:15.03.80
 _ZN14HistoryPtrList4prevEi@Base 4:15.03.80
 _ZN14HistoryPtrList5countEv@Base 4:15.03.80
 _ZN14HistoryPtrList5indexEv@Base 4:15.03.80
 _ZN14HistoryPtrList7addItemEP9EntryList@Base 4:15.03.80
 _ZN14HistoryPtrList7currentEv@Base 4:15.03.80
 _ZN14HistoryPtrListC1Ev@Base 4:15.03.80
 _ZN14HistoryPtrListC2Ev@Base 4:15.03.80
 _ZN14HistoryPtrListD0Ev@Base 4:15.03.80
 _ZN14HistoryPtrListD1Ev@Base 4:15.03.80
 _ZN14HistoryPtrListD2Ev@Base 4:15.03.80
 _ZN16DictFileKanjidic10validQueryERK9DictQuery@Base 4:15.03.80
 _ZN16DictFileKanjidic12loadListTypeEP19KConfigSkeletonItemP11QStringListRK4QMapI7QStringS5_E@Base 4:15.03.80
 _ZN16DictFileKanjidic12loadSettingsEP15KConfigSkeleton@Base 4:15.03.80
 _ZN16DictFileKanjidic12loadSettingsEv@Base 4:15.03.80
 _ZN16DictFileKanjidic13displayFieldsE@Base 4:15.03.80
 _ZN16DictFileKanjidic14dumpDictionaryEv@Base 4:15.03.80
 _ZN16DictFileKanjidic14loadDictionaryERK7QStringS2_@Base 4:15.03.80
 _ZN16DictFileKanjidic19validDictionaryFileERK7QString@Base 4:15.03.80
 _ZN16DictFileKanjidic8doSearchERK9DictQuery@Base 4:15.03.80
 _ZN16DictFileKanjidicC1Ev@Base 4:15.03.80
 _ZN16DictFileKanjidicC2Ev@Base 4:15.03.80
 _ZN16DictFileKanjidicD0Ev@Base 4:15.03.80
 _ZN16DictFileKanjidicD1Ev@Base 4:15.03.80
 _ZN16DictFileKanjidicD2Ev@Base 4:15.03.80
 _ZN17DictionaryManager12loadSettingsERK7KConfig@Base 4:15.03.80
 _ZN17DictionaryManager12makeDictFileERK7QString@Base 4:15.03.80
 _ZN17DictionaryManager13addDictionaryERK7QStringS2_S2_@Base 4:15.03.80
 _ZN17DictionaryManager16loadDictSettingsERK7QStringP15KConfigSkeleton@Base 4:15.03.80
 _ZN17DictionaryManager16removeDictionaryERK7QString@Base 4:15.03.80
 _ZN17DictionaryManager17listDictFileTypesEv@Base 4:15.03.80
 _ZN17DictionaryManager21removeAllDictionariesEv@Base 4:15.03.80
 _ZN17DictionaryManager25generatePreferenceDialogsEP15KConfigSkeletonP7QWidget@Base 4:15.03.80
 _ZN17DictionaryManager26generateExtendedFieldsListEv@Base 4:15.03.80
 _ZN17DictionaryManagerC1Ev@Base 4:15.03.80
 _ZN17DictionaryManagerC2Ev@Base 4:15.03.80
 _ZN17DictionaryManagerD0Ev@Base 4:15.03.80
 _ZN17DictionaryManagerD1Ev@Base 4:15.03.80
 _ZN17DictionaryManagerD2Ev@Base 4:15.03.80
 _ZN26DictionaryPreferenceDialog11qt_metacallEN11QMetaObject4CallEiPPv@Base 4:15.03.80
 _ZN26DictionaryPreferenceDialog11qt_metacastEPKc@Base 4:15.03.80
 _ZN26DictionaryPreferenceDialog13widgetChangedEv@Base 4:15.03.80
 _ZN26DictionaryPreferenceDialog16staticMetaObjectE@Base 4:15.03.80
 _ZN26DictionaryPreferenceDialogC1EP7QWidgetRK7QString@Base 4:15.03.80
 _ZN26DictionaryPreferenceDialogC2EP7QWidgetRK7QString@Base 4:15.03.80
 _ZN26DictionaryPreferenceDialogD0Ev@Base 4:15.03.80
 _ZN26DictionaryPreferenceDialogD1Ev@Base 4:15.03.80
 _ZN26DictionaryPreferenceDialogD2Ev@Base 4:15.03.80
 _ZN5Entry4initEv@Base 4:15.03.80
 _ZN5EntryC1ERK7QString@Base 4:15.03.80
 _ZN5EntryC1ERK7QStringS2_RK11QStringListS5_@Base 4:15.03.80
 _ZN5EntryC1ERKS_@Base 4:15.03.80
 _ZN5EntryC1Ev@Base 4:15.03.80
 _ZN5EntryC2ERK7QString@Base 4:15.03.80
 _ZN5EntryC2ERK7QStringS2_RK11QStringListS5_@Base 4:15.03.80
 _ZN5EntryC2ERKS_@Base 4:15.03.80
 _ZN5EntryC2Ev@Base 4:15.03.80
 _ZN5EntryD0Ev@Base 4:15.03.80
 _ZN5EntryD1Ev@Base 4:15.03.80
 _ZN5EntryD2Ev@Base 4:15.03.80
 _ZN9DictQuery10setMeaningERK7QString@Base 4:15.03.80
 _ZN9DictQuery11setPropertyERK7QStringS2_@Base 4:15.03.80
 _ZN9DictQuery12setMatchTypeENS_9MatchTypeE@Base 4:15.03.80
 _ZN9DictQuery12takePropertyERK7QString@Base 4:15.03.80
 _ZN9DictQuery13charTypeCheckERK5QChar@Base 4:15.03.80
 _ZN9DictQuery13mainDelimiterE@Base 4:15.03.80
 _ZN9DictQuery13setFilterTypeENS_10FilterTypeE@Base 4:15.03.80
 _ZN9DictQuery14removePropertyERK7QString@Base 4:15.03.80
 _ZN9DictQuery15setDictionariesERK11QStringList@Base 4:15.03.80
 _ZN9DictQuery15stringTypeCheckERK7QString@Base 4:15.03.80
 _ZN9DictQuery16setMatchWordTypeENS_13MatchWordTypeE@Base 4:15.03.80
 _ZN9DictQuery16setPronunciationERK7QString@Base 4:15.03.80
 _ZN9DictQuery17propertySeperatorE@Base 4:15.03.80
 _ZN9DictQuery5clearEv@Base 4:15.03.80
 _ZN9DictQuery7Private10wordMarkerE@Base 4:15.03.80
 _ZN9DictQuery7Private13meaningMarkerE@Base 4:15.03.80
 _ZN9DictQuery7Private19pronunciationMarkerE@Base 4:15.03.80
 _ZN9DictQuery7setWordERK7QString@Base 4:15.03.80
 _ZN9DictQueryC1ERK7QString@Base 4:15.03.80
 _ZN9DictQueryC1ERKS_@Base 4:15.03.80
 _ZN9DictQueryC1Ev@Base 4:15.03.80
 _ZN9DictQueryC2ERK7QString@Base 4:15.03.80
 _ZN9DictQueryC2ERKS_@Base 4:15.03.80
 _ZN9DictQueryC2Ev@Base 4:15.03.80
 _ZN9DictQueryD1Ev@Base 4:15.03.80
 _ZN9DictQueryD2Ev@Base 4:15.03.80
 _ZN9DictQueryaSERK7QString@Base 4:15.03.80
 _ZN9DictQueryaSERKS_@Base 4:15.03.80
 _ZN9DictQueryixERK7QString@Base 4:15.03.80
 _ZN9DictQuerypLERKS_@Base 4:15.03.80
 _ZN9EntryList10appendListEPKS_@Base 4:15.03.80
 _ZN9EntryList14setScrollValueEi@Base 4:15.03.80
 _ZN9EntryList4sortER11QStringListS1_@Base 4:15.03.80
 _ZN9EntryList8setQueryERK9DictQuery@Base 4:15.03.80
 _ZN9EntryList9deleteAllEv@Base 4:15.03.80
 _ZN9EntryListC1ERKS_@Base 4:15.03.80
 _ZN9EntryListC1Ev@Base 4:15.03.80
 _ZN9EntryListC2ERKS_@Base 4:15.03.80
 _ZN9EntryListC2Ev@Base 4:15.03.80
 _ZN9EntryListD0Ev@Base 4:15.03.80
 _ZN9EntryListD1Ev@Base 4:15.03.80
 _ZN9EntryListD2Ev@Base 4:15.03.80
 _ZN9EntryListaSERKS_@Base 4:15.03.80
 _ZN9EntryListpLERKS_@Base 4:15.03.80
 _ZNK10EntryEdict10isParticleEv@Base 4:15.03.80
 _ZNK10EntryEdict11isAdjectiveEv@Base 4:15.03.80
 _ZNK10EntryEdict11isGodanVerbEv@Base 4:15.03.80
 _ZNK10EntryEdict12getTypesListEv@Base 4:15.03.80
 _ZNK10EntryEdict12isExpressionEv@Base 4:15.03.80
 _ZNK10EntryEdict12kanjiLinkifyERK7QString@Base 4:15.03.80
 _ZNK10EntryEdict13isIchidanVerbEv@Base 4:15.03.80
 _ZNK10EntryEdict14isFukisokuVerbEv@Base 4:15.03.80
 _ZNK10EntryEdict15matchesWordTypeERK9DictQuery@Base 4:15.03.80
 _ZNK10EntryEdict17getDictionaryTypeEv@Base 4:15.03.80
 _ZNK10EntryEdict5cloneEv@Base 4:15.03.80
 _ZNK10EntryEdict6isNounEv@Base 4:15.03.80
 _ZNK10EntryEdict6isVerbEv@Base 4:15.03.80
 _ZNK10EntryEdict6toHTMLEv@Base 4:15.03.80
 _ZNK10EntryEdict8HTMLWordEv@Base 4:15.03.80
 _ZNK10EntryEdict8getTypesEv@Base 4:15.03.80
 _ZNK10EntryEdict8isAdverbEv@Base 4:15.03.80
 _ZNK10EntryEdict8isCommonEv@Base 4:15.03.80
 _ZNK10EntryEdict8isPrefixEv@Base 4:15.03.80
 _ZNK10EntryEdict8isSuffixEv@Base 4:15.03.80
 _ZNK10EntryEdict9dumpEntryEv@Base 4:15.03.80
 _ZNK13DictFileEdict14displayOptionsEv@Base 4:15.03.80
 _ZNK13DictFileEdict18loadDisplayOptionsEv@Base 4:15.03.80
 _ZNK13DictFileEdict22listDictDisplayOptionsE11QStringList@Base 4:15.03.80
 _ZNK13EntryKanjidic11addReadingsERK11QStringList@Base 4:15.03.80
 _ZNK13EntryKanjidic12HTMLReadingsEv@Base 4:15.03.80
 _ZNK13EntryKanjidic13getKanjiGradeEv@Base 4:15.03.80
 _ZNK13EntryKanjidic15getStrokesCountEv@Base 4:15.03.80
 _ZNK13EntryKanjidic15makeReadingLinkERK7QString@Base 4:15.03.80
 _ZNK13EntryKanjidic16HTMLExtendedInfoERK7QString@Base 4:15.03.80
 _ZNK13EntryKanjidic17extendedItemCheckERK7QStringS2_@Base 4:15.03.80
 _ZNK13EntryKanjidic17getDictionaryTypeEv@Base 4:15.03.80
 _ZNK13EntryKanjidic17getOnyomiReadingsEv@Base 4:15.03.80
 _ZNK13EntryKanjidic18getInNamesReadingsEv@Base 4:15.03.80
 _ZNK13EntryKanjidic18getKunyomiReadingsEv@Base 4:15.03.80
 _ZNK13EntryKanjidic20getAsRadicalReadingsEv@Base 4:15.03.80
 _ZNK13EntryKanjidic21getOnyomiReadingsListEv@Base 4:15.03.80
 _ZNK13EntryKanjidic22getInNamesReadingsListEv@Base 4:15.03.80
 _ZNK13EntryKanjidic22getKunyomiReadingsListEv@Base 4:15.03.80
 _ZNK13EntryKanjidic24getAsRadicalReadingsListEv@Base 4:15.03.80
 _ZNK13EntryKanjidic5cloneEv@Base 4:15.03.80
 _ZNK13EntryKanjidic6toHTMLEv@Base 4:15.03.80
 _ZNK13EntryKanjidic8HTMLWordEv@Base 4:15.03.80
 _ZNK13EntryKanjidic9dumpEntryEv@Base 4:15.03.80
 _ZNK16DictFileKanjidic14displayOptionsEv@Base 4:15.03.80
 _ZNK16DictFileKanjidic18loadDisplayOptionsEv@Base 4:15.03.80
 _ZNK16DictFileKanjidic22listDictDisplayOptionsE11QStringList@Base 4:15.03.80
 _ZNK17DictionaryManager14doSearchInListERK9DictQueryPK9EntryList@Base 4:15.03.80
 _ZNK17DictionaryManager16listDictionariesEv@Base 4:15.03.80
 _ZNK17DictionaryManager18listDictionaryInfoERK7QString@Base 4:15.03.80
 _ZNK17DictionaryManager22listDictionariesOfTypeERK7QString@Base 4:15.03.80
 _ZNK17DictionaryManager8doSearchERK9DictQuery@Base 4:15.03.80
 _ZNK26DictionaryPreferenceDialog10metaObjectEv@Base 4:15.03.80
 _ZNK26DictionaryPreferenceDialog4nameEv@Base 4:15.03.80
 _ZNK5Entry11getDictNameEv@Base 4:15.03.80
 _ZNK5Entry11getMeaningsEv@Base 4:15.03.80
 _ZNK5Entry11getReadingsEv@Base 4:15.03.80
 _ZNK5Entry11sortByFieldERKS_RK7QString@Base 4:15.03.80
 _ZNK5Entry12HTMLMeaningsEv@Base 4:15.03.80
 _ZNK5Entry12HTMLReadingsEv@Base 4:15.03.80
 _ZNK5Entry12matchesQueryERK9DictQuery@Base 4:15.03.80
 _ZNK5Entry15getExtendedInfoEv@Base 4:15.03.80
 _ZNK5Entry15getMeaningsListEv@Base 4:15.03.80
 _ZNK5Entry15getReadingsListEv@Base 4:15.03.80
 _ZNK5Entry17extendedItemCheckERK7QStringS2_@Base 4:15.03.80
 _ZNK5Entry19getExtendedInfoItemERK7QString@Base 4:15.03.80
 _ZNK5Entry4sortERKS_RK11QStringListS4_@Base 4:15.03.80
 _ZNK5Entry6toHTMLEv@Base 4:15.03.80
 _ZNK5Entry7getWordEv@Base 4:15.03.80
 _ZNK5Entry7isKanjiERK5QChar@Base 4:15.03.80
 _ZNK5Entry7toKVTMLEv@Base 4:15.03.80
 _ZNK5Entry8HTMLWordEv@Base 4:15.03.80
 _ZNK5Entry8makeLinkERK7QString@Base 4:15.03.80
 _ZNK5Entry8toStringEv@Base 4:15.03.80
 _ZNK5Entry9listMatchERK11QStringListS2_N9DictQuery9MatchTypeE@Base 4:15.03.80
 _ZNK9DictQuery10getMeaningEv@Base 4:15.03.80
 _ZNK9DictQuery11getPropertyERK7QString@Base 4:15.03.80
 _ZNK9DictQuery11hasPropertyERK7QString@Base 4:15.03.80
 _ZNK9DictQuery12getMatchTypeEv@Base 4:15.03.80
 _ZNK9DictQuery13getFilterTypeEv@Base 4:15.03.80
 _ZNK9DictQuery15getDictionariesEv@Base 4:15.03.80
 _ZNK9DictQuery16getMatchWordTypeEv@Base 4:15.03.80
 _ZNK9DictQuery16getPronunciationEv@Base 4:15.03.80
 _ZNK9DictQuery16listPropertyKeysEv@Base 4:15.03.80
 _ZNK9DictQuery5cloneEv@Base 4:15.03.80
 _ZNK9DictQuery7getWordEv@Base 4:15.03.80
 _ZNK9DictQuery7isEmptyEv@Base 4:15.03.80
 _ZNK9DictQuery8toStringEv@Base 4:15.03.80
 _ZNK9DictQuerycv7QStringEv@Base 4:15.03.80
 _ZNK9DictQueryixERK7QString@Base 4:15.03.80
 _ZNK9EntryList11scrollValueEv@Base 4:15.03.80
 _ZNK9EntryList6toHTMLEjj@Base 4:15.03.80
 _ZNK9EntryList6toHTMLEv@Base 4:15.03.80
 _ZNK9EntryList7toKVTMLEjj@Base 4:15.03.80
 _ZNK9EntryList8getQueryEv@Base 4:15.03.80
 _ZNK9EntryList8toStringEjj@Base 4:15.03.80
 _ZNK9EntryList8toStringEv@Base 4:15.03.80
 _ZTI10EntryEdict@Base 4:15.03.80
 _ZTI13DictFileEdict@Base 4:15.03.80
 _ZTI13EntryKanjidic@Base 4:15.03.80
 _ZTI14HistoryPtrList@Base 4:15.03.80
 _ZTI16DictFileKanjidic@Base 4:15.03.80
 _ZTI17DictionaryManager@Base 4:15.03.80
 _ZTI26DictionaryPreferenceDialog@Base 4:15.03.80
 _ZTI5Entry@Base 4:15.03.80
 _ZTI9EntryList@Base 4:15.03.80
 _ZTS10EntryEdict@Base 4:15.03.80
 _ZTS13DictFileEdict@Base 4:15.03.80
 _ZTS13EntryKanjidic@Base 4:15.03.80
 _ZTS14HistoryPtrList@Base 4:15.03.80
 _ZTS16DictFileKanjidic@Base 4:15.03.80
 _ZTS17DictionaryManager@Base 4:15.03.80
 _ZTS26DictionaryPreferenceDialog@Base 4:15.03.80
 _ZTS5Entry@Base 4:15.03.80
 _ZTS9EntryList@Base 4:15.03.80
 _ZTV10EntryEdict@Base 4:15.03.80
 _ZTV13DictFileEdict@Base 4:15.03.80
 _ZTV13EntryKanjidic@Base 4:15.03.80
 _ZTV14HistoryPtrList@Base 4:15.03.80
 _ZTV16DictFileKanjidic@Base 4:15.03.80
 _ZTV17DictionaryManager@Base 4:15.03.80
 _ZTV26DictionaryPreferenceDialog@Base 4:15.03.80
 _ZTV5Entry@Base 4:15.03.80
 _ZTV9EntryList@Base 4:15.03.80
 _ZeqRK9DictQueryS1_@Base 4:15.03.80
 _ZltRK9DictQueryS1_@Base 4:15.03.80
 _ZneRK9DictQueryS1_@Base 4:15.03.80
 _ZplRK9DictQueryS1_@Base 4:15.03.80
 (c++)"non-virtual thunk to DictionaryPreferenceDialog::~DictionaryPreferenceDialog()@Base" 4:15.03.80
